target datalayout = "e-m:e-p270:32:32-p271:32:32-p272:64:64-i64:64-i128:128-f80:128-n8:16:32:64-S128"
target triple = "x86_64-pc-linux-gnu"

%struct.AVProbeData = type { ptr, ptr, i32, ptr }
%struct.AVFormatContext = type { ptr, ptr, ptr, ptr, ptr, i32, i32, ptr, i32, ptr, i32, ptr, ptr, i64, i64, i64, i32, i32, i32, i64, i64, ptr, i32, i32, ptr, i32, i32, i32, i32, ptr, i64, i32, i32, %struct.AVIOInterruptCB, i32, i32, i32, i32, i64, i32, i32, i32, i32, i32, i32, i32, i32, i32, i32, i32, i32, i64, i32, i32, i32, i32, i32, ptr, ptr, ptr, ptr, i32, ptr, ptr, ptr, ptr, i32, ptr, ptr, i64, ptr, ptr, ptr, i64 }
%struct.AVIOInterruptCB = type { ptr, ptr }
%struct.CafContext = type { i32, i32, i64, i64, i64, i64, i64 }
%struct.AVStream = type { ptr, i32, i32, ptr, ptr, %struct.AVRational, i64, i64, i64, i32, i32, %struct.AVRational, ptr, %struct.AVRational, %struct.AVPacket, i32, %struct.AVRational, i32 }
%struct.AVPacket = type { ptr, i64, i64, ptr, i32, i32, i32, ptr, i32, i64, i64, ptr, ptr, %struct.AVRational }
%struct.AVRational = type { i32, i32 }
%struct.FFStream = type { %struct.AVStream, ptr, i32, ptr, i32, ptr, i32, %struct.anon, i32, i32, %struct.FFFrac, ptr, ptr, i32, i32, i64, i64, i32, i32, i32, i64, i64, i64, i32, i64, i64, i64, i32, i32, [17 x i64], [17 x i8], [17 x i64], i64, i8, i8, %struct.AVRational, %struct.AVProbeData, ptr, i64, i32, i32, i32, ptr, i32, i32, i64, i64, ptr, %struct.AVRational }
%struct.anon = type { ptr, i32 }
%struct.FFFrac = type { i64, i64, i64 }
%struct.AVIndexEntry = type { i64, i64, i32, i32 }

; Function Attrs: alwaysinline nounwind uwtable
define internal ptr @ffstream(ptr noundef %0) #5 {
  %2 = alloca ptr, align 8
  store ptr %0, ptr %2, align 8, !tbaa !38
  %3 = load ptr, ptr %2, align 8, !tbaa !38
  ret ptr %3
}

; Function Attrs: nounwind uwtable
define internal i32 @read_seek(ptr noundef %0, i32 noundef %1, i64 noundef %2, i32 noundef %3) #0 {
  %5 = alloca i32, align 4
  %6 = alloca ptr, align 8
  %7 = alloca i32, align 4
  %8 = alloca i64, align 8
  %9 = alloca i32, align 4
  %10 = alloca ptr, align 8
  %11 = alloca ptr, align 8
  %12 = alloca ptr, align 8
  %13 = alloca i64, align 8
  %14 = alloca i64, align 8
  %15 = alloca i64, align 8
  %16 = alloca i32, align 4
  store ptr %0, ptr %6, align 8, !tbaa !14
  store i32 %1, ptr %7, align 4, !tbaa !35
  store i64 %2, ptr %8, align 8, !tbaa !36
  store i32 %3, ptr %9, align 4, !tbaa !35
  call void @llvm.lifetime.start.p0(i64 8, ptr %10) #11
  %17 = load ptr, ptr %6, align 8, !tbaa !14
  %18 = getelementptr inbounds nuw %struct.AVFormatContext, ptr %17, i32 0, i32 7
  %19 = load ptr, ptr %18, align 8, !tbaa !37
  %20 = getelementptr inbounds ptr, ptr %19, i64 0
  %21 = load ptr, ptr %20, align 8, !tbaa !38
  store ptr %21, ptr %10, align 8, !tbaa !38
  call void @llvm.lifetime.start.p0(i64 8, ptr %11) #11
  %22 = load ptr, ptr %10, align 8, !tbaa !38
  %23 = call ptr @ffstream(ptr noundef %22)
  store ptr %23, ptr %11, align 8, !tbaa !76
  call void @llvm.lifetime.start.p0(i64 8, ptr %12) #11
  %24 = load ptr, ptr %6, align 8, !tbaa !14
  %25 = getelementptr inbounds nuw %struct.AVFormatContext, ptr %24, i32 0, i32 3
  %26 = load ptr, ptr %25, align 8, !tbaa !32
  store ptr %26, ptr %12, align 8, !tbaa !33
  call void @llvm.lifetime.start.p0(i64 8, ptr %13) #11
  call void @llvm.lifetime.start.p0(i64 8, ptr %14) #11
  call void @llvm.lifetime.start.p0(i64 8, ptr %15) #11
  %27 = load i64, ptr %8, align 8, !tbaa !36
  %28 = icmp sgt i64 %27, 0
  br i1 %28, label %29, label %31

29:                                               ; preds = %4
  %30 = load i64, ptr %8, align 8, !tbaa !36
  br label %32

31:                                               ; preds = %4
  br label %32

32:                                               ; preds = %31, %29
  %33 = phi i64 [ %30, %29 ], [ 0, %31 ]
  store i64 %33, ptr %8, align 8, !tbaa !36
  %34 = load ptr, ptr %12, align 8, !tbaa !33
  %35 = getelementptr inbounds nuw %struct.CafContext, ptr %34, i32 0, i32 1
  %36 = load i32, ptr %35, align 4, !tbaa !48
  %37 = icmp sgt i32 %36, 0
  br i1 %37, label %38, label %86

38:                                               ; preds = %32
  %39 = load ptr, ptr %12, align 8, !tbaa !33
  %40 = getelementptr inbounds nuw %struct.CafContext, ptr %39, i32 0, i32 0
  %41 = load i32, ptr %40, align 8, !tbaa !47
  %42 = icmp sgt i32 %41, 0
  br i1 %42, label %43, label %86

43:                                               ; preds = %38
  %44 = load ptr, ptr %12, align 8, !tbaa !33
  %45 = getelementptr inbounds nuw %struct.CafContext, ptr %44, i32 0, i32 0
  %46 = load i32, ptr %45, align 8, !tbaa !47
  %47 = sext i32 %46 to i64
  %48 = load i64, ptr %8, align 8, !tbaa !36
  %49 = load ptr, ptr %12, align 8, !tbaa !33
  %50 = getelementptr inbounds nuw %struct.CafContext, ptr %49, i32 0, i32 1
  %51 = load i32, ptr %50, align 4, !tbaa !48
  %52 = sext i32 %51 to i64
  %53 = sdiv i64 %48, %52
  %54 = mul nsw i64 %47, %53
  store i64 %54, ptr %13, align 8, !tbaa !36
  %55 = load ptr, ptr %12, align 8, !tbaa !33
  %56 = getelementptr inbounds nuw %struct.CafContext, ptr %55, i32 0, i32 6
  %57 = load i64, ptr %56, align 8, !tbaa !40
  %58 = icmp sgt i64 %57, 0
  br i1 %58, label %59, label %73

59:                                               ; preds = %43
  %60 = load i64, ptr %13, align 8, !tbaa !36
  %61 = load ptr, ptr %12, align 8, !tbaa !33
  %62 = getelementptr inbounds nuw %struct.CafContext, ptr %61, i32 0, i32 6
  %63 = load i64, ptr %62, align 8, !tbaa !40
  %64 = icmp sgt i64 %60, %63
  br i1 %64, label %65, label %69

65:                                               ; preds = %59
  %66 = load ptr, ptr %12, align 8, !tbaa !33
  %67 = getelementptr inbounds nuw %struct.CafContext, ptr %66, i32 0, i32 6
  %68 = load i64, ptr %67, align 8, !tbaa !40
  br label %71

69:                                               ; preds = %59
  %70 = load i64, ptr %13, align 8, !tbaa !36
  br label %71

71:                                               ; preds = %69, %65
  %72 = phi i64 [ %68, %65 ], [ %70, %69 ]
  store i64 %72, ptr %13, align 8, !tbaa !36
  br label %73

73:                                               ; preds = %71, %43
  %74 = load i64, ptr %13, align 8, !tbaa !36
  %75 = load ptr, ptr %12, align 8, !tbaa !33
  %76 = getelementptr inbounds nuw %struct.CafContext, ptr %75, i32 0, i32 0
  %77 = load i32, ptr %76, align 8, !tbaa !47
  %78 = sext i32 %77 to i64
  %79 = sdiv i64 %74, %78
  store i64 %79, ptr %14, align 8, !tbaa !36
  %80 = load ptr, ptr %12, align 8, !tbaa !33
  %81 = getelementptr inbounds nuw %struct.CafContext, ptr %80, i32 0, i32 1
  %82 = load i32, ptr %81, align 4, !tbaa !48
  %83 = sext i32 %82 to i64
  %84 = load i64, ptr %14, align 8, !tbaa !36
  %85 = mul nsw i64 %83, %84
  store i64 %85, ptr %15, align 8, !tbaa !36
  br label %113

86:                                               ; preds = %38, %32
  %87 = load ptr, ptr %11, align 8, !tbaa !76
  %88 = getelementptr inbounds nuw %struct.FFStream, ptr %87, i32 0, i32 13
  %89 = load i32, ptr %88, align 8, !tbaa !56
  %90 = icmp ne i32 %89, 0
  br i1 %90, label %91, label %111

91:                                               ; preds = %86
  %92 = load ptr, ptr %10, align 8, !tbaa !38
  %93 = load i64, ptr %8, align 8, !tbaa !36
  %94 = load i32, ptr %9, align 4, !tbaa !35
  %95 = call i32 @av_index_search_timestamp(ptr noundef %92, i64 noundef %93, i32 noundef %94)
  %96 = sext i32 %95 to i64
  store i64 %96, ptr %14, align 8, !tbaa !36
  %97 = load ptr, ptr %11, align 8, !tbaa !76
  %98 = getelementptr inbounds nuw %struct.FFStream, ptr %97, i32 0, i32 12
  %99 = load ptr, ptr %98, align 8, !tbaa !79
  %100 = load i64, ptr %14, align 8, !tbaa !36
  %101 = getelementptr inbounds %struct.AVIndexEntry, ptr %99, i64 %100
  %102 = getelementptr inbounds nuw %struct.AVIndexEntry, ptr %101, i32 0, i32 1
  %103 = load i64, ptr %102, align 8, !tbaa !82
  store i64 %103, ptr %15, align 8, !tbaa !36
  %104 = load ptr, ptr %11, align 8, !tbaa !76
  %105 = getelementptr inbounds nuw %struct.FFStream, ptr %104, i32 0, i32 12
  %106 = load ptr, ptr %105, align 8, !tbaa !79
  %107 = load i64, ptr %14, align 8, !tbaa !36
  %108 = getelementptr inbounds %struct.AVIndexEntry, ptr %106, i64 %107
  %109 = getelementptr inbounds nuw %struct.AVIndexEntry, ptr %108, i32 0, i32 0
  %110 = load i64, ptr %109, align 8, !tbaa !80
  store i64 %110, ptr %13, align 8, !tbaa !36
  br label %112

111:                                              ; preds = %86
  store i32 -1, ptr %5, align 4
  store i32 1, ptr %16, align 4
  br label %132

112:                                              ; preds = %91
  br label %113

113:                                              ; preds = %112, %73
  %114 = load ptr, ptr %6, align 8, !tbaa !14
  %115 = getelementptr inbounds nuw %struct.AVFormatContext, ptr %114, i32 0, i32 4
  %116 = load ptr, ptr %115, align 8, !tbaa !16
  %117 = load i64, ptr %13, align 8, !tbaa !36
  %118 = load ptr, ptr %12, align 8, !tbaa !33
  %119 = getelementptr inbounds nuw %struct.CafContext, ptr %118, i32 0, i32 5
  %120 = load i64, ptr %119, align 8, !tbaa !44
  %121 = add nsw i64 %117, %120
  %122 = call i64 @avio_seek(ptr noundef %116, i64 noundef %121, i32 noundef 0)
  %123 = icmp slt i64 %122, 0
  br i1 %123, label %124, label %125

124:                                              ; preds = %113
  store i32 -1, ptr %5, align 4
  store i32 1, ptr %16, align 4
  br label %132

125:                                              ; preds = %113
  %126 = load i64, ptr %14, align 8, !tbaa !36
  %127 = load ptr, ptr %12, align 8, !tbaa !33
  %128 = getelementptr inbounds nuw %struct.CafContext, ptr %127, i32 0, i32 3
  store i64 %126, ptr %128, align 8, !tbaa !78
  %129 = load i64, ptr %15, align 8, !tbaa !36
  %130 = load ptr, ptr %12, align 8, !tbaa !33
  %131 = getelementptr inbounds nuw %struct.CafContext, ptr %130, i32 0, i32 4
  store i64 %129, ptr %131, align 8, !tbaa !86
  store i32 0, ptr %5, align 4
  store i32 1, ptr %16, align 4
  br label %132

132:                                              ; preds = %125, %124, %111
  call void @llvm.lifetime.end.p0(i64 8, ptr %15) #11
  call void @llvm.lifetime.end.p0(i64 8, ptr %14) #11
  call void @llvm.lifetime.end.p0(i64 8, ptr %13) #11
  call void @llvm.lifetime.end.p0(i64 8, ptr %12) #11
  call void @llvm.lifetime.end.p0(i64 8, ptr %11) #11
  call void @llvm.lifetime.end.p0(i64 8, ptr %10) #11
  %133 = load i32, ptr %5, align 4
  ret i32 %133
}