; Function Attrs: nounwind uwtable
define internal range(i32 -1, 1) i32 @read_seek(ptr noundef readonly captures(none) %0, i32 %1, i64 noundef %2, i32 noundef %3) #1 {
  %5 = getelementptr inbounds nuw i8, ptr %0, i64 48
  %6 = load ptr, ptr %5, align 8, !tbaa !48
  %7 = load ptr, ptr %6, align 8, !tbaa !49
  %8 = getelementptr inbounds nuw i8, ptr %0, i64 24
  %9 = load ptr, ptr %8, align 8, !tbaa !27
  %10 = tail call i64 @llvm.smax.i64(i64 %2, i64 0)
  %11 = getelementptr inbounds nuw i8, ptr %9, i64 4
  %12 = load i32, ptr %11, align 4, !tbaa !43
  %13 = icmp sgt i32 %12, 0
  br i1 %13, label %14, label %27

14:                                               ; preds = %4
  %15 = load i32, ptr %9, align 8, !tbaa !40
  %16 = icmp sgt i32 %15, 0
  br i1 %16, label %17, label %27

17:                                               ; preds = %14
  %18 = zext nneg i32 %15 to i64
  %19 = zext nneg i32 %12 to i64
  %20 = udiv i64 %10, %19
  %21 = mul nuw nsw i64 %20, %18
  %22 = getelementptr inbounds nuw i8, ptr %9, i64 40
  %23 = load i64, ptr %22, align 8, !tbaa !51
  %24 = icmp sgt i64 %23, 0
  %. = tail call i64 @llvm.smin.i64(i64 %21, i64 %23)
  %.035 = select i1 %24, i64 %., i64 %21
  %25 = sdiv i64 %.035, %18
  %26 = mul nsw i64 %25, %19
  br label %39

27:                                               ; preds = %14, %4
  %28 = getelementptr inbounds nuw i8, ptr %7, i64 328
  %29 = load i32, ptr %28, align 8, !tbaa !63
  %.not = icmp eq i32 %29, 0
  br i1 %.not, label %50, label %30

30:                                               ; preds = %27
  %31 = tail call i32 @av_index_search_timestamp(ptr noundef nonnull %7, i64 noundef %10, i32 noundef %3) #8
  %32 = sext i32 %31 to i64
  %33 = getelementptr inbounds nuw i8, ptr %7, i64 320
  %34 = load ptr, ptr %33, align 8, !tbaa !77
  %35 = getelementptr inbounds %struct.AVIndexEntry, ptr %34, i64 %32
  %36 = getelementptr inbounds nuw i8, ptr %35, i64 8
  %37 = load i64, ptr %36, align 8, !tbaa !80
  %38 = load i64, ptr %35, align 8, !tbaa !78
  br label %39

39:                                               ; preds = %30, %17
  %.1 = phi i64 [ %.035, %17 ], [ %38, %30 ]
  %.034 = phi i64 [ %25, %17 ], [ %32, %30 ]
  %.0 = phi i64 [ %26, %17 ], [ %37, %30 ]
  %40 = getelementptr inbounds nuw i8, ptr %0, i64 32
  %41 = load ptr, ptr %40, align 8, !tbaa !12
  %42 = getelementptr inbounds nuw i8, ptr %9, i64 32
  %43 = load i64, ptr %42, align 8, !tbaa !54
  %44 = add nsw i64 %43, %.1
  %45 = tail call i64 @avio_seek(ptr noundef %41, i64 noundef %44, i32 noundef 0) #8
  %46 = icmp slt i64 %45, 0
  br i1 %46, label %50, label %47

47:                                               ; preds = %39
  %48 = getelementptr inbounds nuw i8, ptr %9, i64 16
  store i64 %.034, ptr %48, align 8, !tbaa !76
  %49 = getelementptr inbounds nuw i8, ptr %9, i64 24
  store i64 %.0, ptr %49, align 8, !tbaa !83
  br label %50

50:                                               ; preds = %39, %27, %47
  %.036 = phi i32 [ 0, %47 ], [ -1, %27 ], [ -1, %39 ]
  ret i32 %.036
}